; Function Attrs: nounwind uwtable
define ptr @l_List_lengthTRAux___rarg___boxed(ptr noundef %0, ptr noundef %1) #0 {
  br label %lean_dec.exit.i

lean_dec.exit.i:                                  ; preds = %lean_dec.exit.i.backedge, %2
  %.08.i = phi ptr [ %1, %2 ], [ %.08.i.be, %lean_dec.exit.i.backedge ]
  %.0.i = phi ptr [ %0, %2 ], [ %14, %lean_dec.exit.i.backedge ]
  %3 = ptrtoint ptr %.0.i to i64
  %4 = and i64 %3, 1
  %.not.i9.i = icmp eq i64 %4, 0
  br i1 %.not.i9.i, label %8, label %5

5:                                                ; preds = %lean_dec.exit.i
  %6 = lshr i64 %3, 1
  %7 = trunc i64 %6 to i32
  br label %lean_obj_tag.exit.i

8:                                                ; preds = %lean_dec.exit.i
  %9 = getelementptr i8, ptr %.0.i, i64 4
  %.val.i.i = load i32, ptr %9, align 4
  %10 = lshr i32 %.val.i.i, 24
  br label %lean_obj_tag.exit.i

lean_obj_tag.exit.i:                              ; preds = %8, %5
  %.0.i10.i = phi i32 [ %7, %5 ], [ %10, %8 ]
  %11 = icmp eq i32 %.0.i10.i, 0
  br i1 %11, label %l_List_lengthTRAux___rarg.exit, label %12

12:                                               ; preds = %lean_obj_tag.exit.i
  %13 = getelementptr inbounds nuw i8, ptr %.0.i, i64 16
  %14 = load ptr, ptr %13, align 8, !tbaa !10
  %15 = ptrtoint ptr %.08.i to i64
  %16 = and i64 %15, 1
  %.not.i4 = icmp eq i64 %16, 0
  br i1 %.not.i4, label %27, label %17, !prof !15

17:                                               ; preds = %12
  %18 = lshr i64 %15, 1
  %19 = add nuw i64 %18, 1
  %20 = icmp sgt i64 %19, -1
  br i1 %20, label %21, label %25, !prof !9

21:                                               ; preds = %17
  %22 = shl nuw i64 %19, 1
  %23 = or disjoint i64 %22, 1
  %24 = inttoptr i64 %23 to ptr
  br label %lean_dec.exit.i.backedge

25:                                               ; preds = %17
  %26 = tail call ptr @lean_big_usize_to_nat(i64 noundef %19) #11
  br label %lean_dec.exit.i.backedge

27:                                               ; preds = %12
  %28 = tail call ptr @lean_nat_big_add(ptr noundef %.08.i, ptr noundef nonnull inttoptr (i64 3 to ptr)) #11
  %29 = load i32, ptr %.08.i, align 4, !tbaa !4
  %30 = icmp sgt i32 %29, 1
  br i1 %30, label %31, label %33, !prof !9

31:                                               ; preds = %27
  %32 = add nsw i32 %29, -1
  store i32 %32, ptr %.08.i, align 4, !tbaa !4
  br label %lean_dec.exit.i.backedge

33:                                               ; preds = %27
  %.not.i.i = icmp eq i32 %29, 0
  br i1 %.not.i.i, label %lean_dec.exit.i.backedge, label %34

34:                                               ; preds = %33
  tail call void @lean_dec_ref_cold(ptr noundef nonnull %.08.i) #11
  br label %lean_dec.exit.i.backedge

lean_dec.exit.i.backedge:                         ; preds = %34, %33, %31, %25, %21
  %.08.i.be = phi ptr [ %28, %31 ], [ %28, %33 ], [ %28, %34 ], [ %26, %25 ], [ %24, %21 ]
  br label %lean_dec.exit.i

l_List_lengthTRAux___rarg.exit:                   ; preds = %lean_obj_tag.exit.i
  %35 = ptrtoint ptr %0 to i64
  %36 = and i64 %35, 1
  %.not = icmp eq i64 %36, 0
  br i1 %.not, label %37, label %lean_dec.exit

37:                                               ; preds = %l_List_lengthTRAux___rarg.exit
  %38 = load i32, ptr %0, align 4, !tbaa !4
  %39 = icmp sgt i32 %38, 1
  br i1 %39, label %40, label %42, !prof !9

40:                                               ; preds = %37
  %41 = add nsw i32 %38, -1
  store i32 %41, ptr %0, align 4, !tbaa !4
  br label %lean_dec.exit

42:                                               ; preds = %37
  %.not.i = icmp eq i32 %38, 0
  br i1 %.not.i, label %lean_dec.exit, label %43

43:                                               ; preds = %42
  tail call void @lean_dec_ref_cold(ptr noundef nonnull %0) #11
  br label %lean_dec.exit

lean_dec.exit:                                    ; preds = %43, %42, %40, %l_List_lengthTRAux___rarg.exit
  ret ptr %.08.i
}